; Function Attrs: nounwind uwtable
define internal noalias noundef ptr @tcp_segment_persistent_key(ptr noundef readonly captures(none) %0, i32 noundef %1, ptr noundef readonly %2) #0 {
  %.not = icmp eq ptr %2, null
  br i1 %.not, label %4, label %5

4:                                                ; preds = %3
  tail call void (ptr, ...) @proto_report_dissector_bug(ptr noundef nonnull @.str.4, ptr noundef nonnull @.str.5, i32 noundef 3795, ptr noundef nonnull @.str.796) #22
  unreachable

5:                                                ; preds = %3
  %6 = tail call noalias dereferenceable_or_null(64) ptr @g_slice_alloc(i64 noundef 64) #23
  %7 = getelementptr inbounds nuw i8, ptr %0, i64 208
  %8 = load i32, ptr %7, align 8
  %9 = getelementptr inbounds nuw i8, ptr %0, i64 212
  %10 = load i32, ptr %9, align 4
  %11 = getelementptr inbounds nuw i8, ptr %0, i64 216
  %12 = load ptr, ptr %11, align 8
  tail call void @llvm.memset.p0.i64(ptr noundef nonnull align 8 dereferenceable(24) %6, i8 0, i64 24, i1 false)
  store i32 %8, ptr %6, align 8
  %13 = icmp eq i32 %10, 0
  br i1 %13, label %copy_address.exit, label %14

14:                                               ; preds = %5
  %15 = sext i32 %10 to i64
  %16 = tail call noalias ptr @wmem_memdup(ptr noundef null, ptr noundef %12, i64 noundef %15) #20
  %17 = getelementptr inbounds nuw i8, ptr %6, i64 16
  store ptr %16, ptr %17, align 8
  %18 = getelementptr inbounds nuw i8, ptr %6, i64 8
  store ptr %16, ptr %18, align 8
  %19 = getelementptr inbounds nuw i8, ptr %6, i64 4
  store i32 %10, ptr %19, align 4
  br label %copy_address.exit

copy_address.exit:                                ; preds = %5, %14
  %20 = getelementptr inbounds nuw i8, ptr %6, i64 24
  %21 = getelementptr inbounds nuw i8, ptr %0, i64 232
  %22 = load i32, ptr %21, align 8
  %23 = getelementptr inbounds nuw i8, ptr %0, i64 236
  %24 = load i32, ptr %23, align 4
  %25 = getelementptr inbounds nuw i8, ptr %0, i64 240
  %26 = load ptr, ptr %25, align 8
  tail call void @llvm.memset.p0.i64(ptr noundef nonnull align 8 dereferenceable(24) %20, i8 0, i64 24, i1 false)
  store i32 %22, ptr %20, align 8
  %27 = icmp eq i32 %24, 0
  br i1 %27, label %copy_address.exit14, label %28

28:                                               ; preds = %copy_address.exit
  %29 = sext i32 %24 to i64
  %30 = tail call noalias ptr @wmem_memdup(ptr noundef null, ptr noundef %26, i64 noundef %29) #20
  %31 = getelementptr inbounds nuw i8, ptr %6, i64 40
  store ptr %30, ptr %31, align 8
  %32 = getelementptr inbounds nuw i8, ptr %6, i64 32
  store ptr %30, ptr %32, align 8
  %33 = getelementptr inbounds nuw i8, ptr %6, i64 28
  store i32 %24, ptr %33, align 4
  br label %copy_address.exit14

copy_address.exit14:                              ; preds = %copy_address.exit, %28
  %34 = getelementptr inbounds nuw i8, ptr %0, i64 284
  %35 = load i32, ptr %34, align 4
  %36 = getelementptr inbounds nuw i8, ptr %6, i64 48
  store i32 %35, ptr %36, align 8
  %37 = getelementptr inbounds nuw i8, ptr %0, i64 288
  %38 = load i32, ptr %37, align 8
  %39 = getelementptr inbounds nuw i8, ptr %6, i64 52
  store i32 %38, ptr %39, align 4
  %40 = getelementptr inbounds nuw i8, ptr %6, i64 56
  store i32 %1, ptr %40, align 8
  %41 = load i32, ptr %2, align 8
  %42 = getelementptr inbounds nuw i8, ptr %6, i64 60
  store i32 %41, ptr %42, align 4
  ret ptr %6
}